; Function Attrs: mustprogress nounwind uwtable
define hidden noundef zeroext i1 @_ZN16java_lang_Thread11interruptedEP7oopDesc(ptr noundef %0) local_unnamed_addr #0 align 2 {
  %2 = load i32, ptr @_ZN16java_lang_Thread19_interrupted_offsetE, align 4
  %3 = ptrtoint ptr %0 to i64
  %4 = sext i32 %2 to i64
  %5 = add nsw i64 %4, %3
  %6 = inttoptr i64 %5 to ptr
  %7 = load volatile i8, ptr %6, align 1
  tail call void asm sideeffect "", "~{memory},~{dirflag},~{fpsr},~{flags}"() #19, !srcloc !12
  %8 = icmp ne i8 %7, 0
  ret i1 %8
}